target datalayout = "e-m:e-p270:32:32-p271:32:32-p272:64:64-i64:64-i128:128-f80:128-n8:16:32:64-S128"
target triple = "x86_64-pc-linux-gnu"

@.str = private unnamed_addr constant [2 x i8] c"r\00", align 1
@.str.1 = private unnamed_addr constant [31 x i8] c"../openssl/crypto/ts/ts_conf.c\00", align 1
@__func__.TS_CONF_load_key = private unnamed_addr constant [17 x i8] c"TS_CONF_load_key\00", align 1
@.str.11 = private unnamed_addr constant [11 x i8] c"signer_key\00", align 1
@__func__.ts_CONF_lookup_fail = private unnamed_addr constant [20 x i8] c"ts_CONF_lookup_fail\00", align 1
@.str.26 = private unnamed_addr constant [7 x i8] c"%s::%s\00", align 1

; Function Attrs: nounwind uwtable
define ptr @TS_CONF_load_key(ptr noundef %0, ptr noundef %1) #0 {
  %3 = alloca ptr, align 8
  %4 = alloca ptr, align 8
  %5 = alloca ptr, align 8
  %6 = alloca ptr, align 8
  store ptr %0, ptr %3, align 8, !tbaa !3
  store ptr %1, ptr %4, align 8, !tbaa !3
  call void @llvm.lifetime.start.p0(i64 8, ptr %5) #7
  store ptr null, ptr %5, align 8, !tbaa !8
  call void @llvm.lifetime.start.p0(i64 8, ptr %6) #7
  store ptr null, ptr %6, align 8, !tbaa !29
  %7 = load ptr, ptr %3, align 8, !tbaa !3
  %8 = call ptr @BIO_new_file(ptr noundef %7, ptr noundef @.str)
  store ptr %8, ptr %5, align 8, !tbaa !8
  %9 = icmp eq ptr %8, null
  br i1 %9, label %10, label %11

10:                                               ; preds = %2
  br label %15

11:                                               ; preds = %2
  %12 = load ptr, ptr %5, align 8, !tbaa !8
  %13 = load ptr, ptr %4, align 8, !tbaa !3
  %14 = call ptr @PEM_read_bio_PrivateKey(ptr noundef %12, ptr noundef null, ptr noundef null, ptr noundef %13)
  store ptr %14, ptr %6, align 8, !tbaa !29
  br label %15

15:                                               ; preds = %11, %10
  %16 = load ptr, ptr %6, align 8, !tbaa !29
  %17 = icmp eq ptr %16, null
  br i1 %17, label %18, label %19

18:                                               ; preds = %15
  call void @ERR_new()
  call void @ERR_set_debug(ptr noundef @.str.1, i32 noundef 118, ptr noundef @__func__.TS_CONF_load_key)
  call void (i32, i32, ptr, ...) @ERR_set_error(i32 noundef 47, i32 noundef 138, ptr noundef null)
  br label %19

19:                                               ; preds = %18, %15
  %20 = load ptr, ptr %5, align 8, !tbaa !8
  %21 = call i32 @BIO_free(ptr noundef %20)
  %22 = load ptr, ptr %6, align 8, !tbaa !29
  call void @llvm.lifetime.end.p0(i64 8, ptr %6) #7
  call void @llvm.lifetime.end.p0(i64 8, ptr %5) #7
  ret ptr %22
}

; Function Attrs: nounwind uwtable
define internal void @ts_CONF_lookup_fail(ptr noundef %0, ptr noundef %1) #0 {
  %3 = alloca ptr, align 8
  %4 = alloca ptr, align 8
  store ptr %0, ptr %3, align 8, !tbaa !3
  store ptr %1, ptr %4, align 8, !tbaa !3
  call void @ERR_new()
  call void @ERR_set_debug(ptr noundef @.str.1, i32 noundef 127, ptr noundef @__func__.ts_CONF_lookup_fail)
  %5 = load ptr, ptr %3, align 8, !tbaa !3
  %6 = load ptr, ptr %4, align 8, !tbaa !3
  call void (i32, i32, ptr, ...) @ERR_set_error(i32 noundef 47, i32 noundef 136, ptr noundef @.str.26, ptr noundef %5, ptr noundef %6)
  ret void
}

; Function Attrs: nounwind uwtable
define i32 @TS_CONF_set_signer_key(ptr noundef %0, ptr noundef %1, ptr noundef %2, ptr noundef %3, ptr noundef %4) #0 {
  %6 = alloca ptr, align 8
  %7 = alloca ptr, align 8
  %8 = alloca ptr, align 8
  %9 = alloca ptr, align 8
  %10 = alloca ptr, align 8
  %11 = alloca i32, align 4
  %12 = alloca ptr, align 8
  store ptr %0, ptr %6, align 8, !tbaa !31
  store ptr %1, ptr %7, align 8, !tbaa !3
  store ptr %2, ptr %8, align 8, !tbaa !3
  store ptr %3, ptr %9, align 8, !tbaa !3
  store ptr %4, ptr %10, align 8, !tbaa !33
  call void @llvm.lifetime.start.p0(i64 4, ptr %11) #7
  store i32 0, ptr %11, align 4, !tbaa !16
  call void @llvm.lifetime.start.p0(i64 8, ptr %12) #7
  store ptr null, ptr %12, align 8, !tbaa !29
  %13 = load ptr, ptr %8, align 8, !tbaa !3
  %14 = icmp ne ptr %13, null
  br i1 %14, label %19, label %15

15:                                               ; preds = %5
  %16 = load ptr, ptr %6, align 8, !tbaa !31
  %17 = load ptr, ptr %7, align 8, !tbaa !3
  %18 = call ptr @NCONF_get_string(ptr noundef %16, ptr noundef %17, ptr noundef @.str.11)
  store ptr %18, ptr %8, align 8, !tbaa !3
  br label %19

19:                                               ; preds = %15, %5
  %20 = load ptr, ptr %8, align 8, !tbaa !3
  %21 = icmp ne ptr %20, null
  br i1 %21, label %24, label %22

22:                                               ; preds = %19
  %23 = load ptr, ptr %7, align 8, !tbaa !3
  call void @ts_CONF_lookup_fail(ptr noundef %23, ptr noundef @.str.11)
  br label %37

24:                                               ; preds = %19
  %25 = load ptr, ptr %8, align 8, !tbaa !3
  %26 = load ptr, ptr %9, align 8, !tbaa !3
  %27 = call ptr @TS_CONF_load_key(ptr noundef %25, ptr noundef %26)
  store ptr %27, ptr %12, align 8, !tbaa !29
  %28 = icmp eq ptr %27, null
  br i1 %28, label %29, label %30

29:                                               ; preds = %24
  br label %37

30:                                               ; preds = %24
  %31 = load ptr, ptr %10, align 8, !tbaa !33
  %32 = load ptr, ptr %12, align 8, !tbaa !29
  %33 = call i32 @TS_RESP_CTX_set_signer_key(ptr noundef %31, ptr noundef %32)
  %34 = icmp ne i32 %33, 0
  br i1 %34, label %36, label %35

35:                                               ; preds = %30
  br label %37

36:                                               ; preds = %30
  store i32 1, ptr %11, align 4, !tbaa !16
  br label %37

37:                                               ; preds = %36, %35, %29, %22
  %38 = load ptr, ptr %12, align 8, !tbaa !29
  call void @EVP_PKEY_free(ptr noundef %38)
  %39 = load i32, ptr %11, align 4, !tbaa !16
  call void @llvm.lifetime.end.p0(i64 8, ptr %12) #7
  call void @llvm.lifetime.end.p0(i64 4, ptr %11) #7
  ret i32 %39
}