; Function Attrs: nounwind uwtable
define range(i32 0, 2) i32 @TS_CONF_set_signer_key(ptr noundef %0, ptr noundef %1, ptr noundef %2, ptr noundef %3, ptr noundef %4) local_unnamed_addr #0 {
  %.not = icmp eq ptr %2, null
  br i1 %.not, label %6, label %.thread

6:                                                ; preds = %5
  %7 = tail call ptr @NCONF_get_string(ptr noundef %0, ptr noundef %1, ptr noundef nonnull @.str.11) #4
  %.not14 = icmp eq ptr %7, null
  br i1 %.not14, label %8, label %.thread

8:                                                ; preds = %6
  tail call void @ERR_new() #4
  tail call void @ERR_set_debug(ptr noundef nonnull @.str.1, i32 noundef 127, ptr noundef nonnull @__func__.ts_CONF_lookup_fail) #4
  tail call void (i32, i32, ptr, ...) @ERR_set_error(i32 noundef 47, i32 noundef 136, ptr noundef nonnull @.str.26, ptr noundef %1, ptr noundef nonnull @.str.11) #4
  br label %18

.thread:                                          ; preds = %5, %6
  %.01118 = phi ptr [ %7, %6 ], [ %2, %5 ]
  %9 = tail call ptr @BIO_new_file(ptr noundef nonnull %.01118, ptr noundef nonnull @.str) #4
  %10 = icmp eq ptr %9, null
  br i1 %10, label %TS_CONF_load_key.exit.thread, label %11

11:                                               ; preds = %.thread
  %12 = tail call ptr @PEM_read_bio_PrivateKey(ptr noundef nonnull %9, ptr noundef null, ptr noundef null, ptr noundef %3) #4
  %13 = icmp eq ptr %12, null
  br i1 %13, label %TS_CONF_load_key.exit.thread, label %15

TS_CONF_load_key.exit.thread:                     ; preds = %.thread, %11
  tail call void @ERR_new() #4
  tail call void @ERR_set_debug(ptr noundef nonnull @.str.1, i32 noundef 118, ptr noundef nonnull @__func__.TS_CONF_load_key) #4
  tail call void (i32, i32, ptr, ...) @ERR_set_error(i32 noundef 47, i32 noundef 138, ptr noundef null) #4
  %14 = tail call i32 @BIO_free(ptr noundef %9) #4
  br label %18

15:                                               ; preds = %11
  %16 = tail call i32 @BIO_free(ptr noundef nonnull %9) #4
  %17 = tail call i32 @TS_RESP_CTX_set_signer_key(ptr noundef %4, ptr noundef nonnull %12) #4
  %.not15 = icmp ne i32 %17, 0
  %spec.select = zext i1 %.not15 to i32
  br label %18

18:                                               ; preds = %TS_CONF_load_key.exit.thread, %15, %8
  %.010 = phi i32 [ 0, %8 ], [ %spec.select, %15 ], [ 0, %TS_CONF_load_key.exit.thread ]
  %.0 = phi ptr [ null, %8 ], [ %12, %15 ], [ null, %TS_CONF_load_key.exit.thread ]
  tail call void @EVP_PKEY_free(ptr noundef %.0) #4
  ret i32 %.010
}